target datalayout = "e-m:e-p270:32:32-p271:32:32-p272:64:64-i64:64-i128:128-f80:128-n8:16:32:64-S128"
target triple = "x86_64-pc-linux-gnu"

%struct.tm = type { i32, i32, i32, i32, i32, i32, i32, i32, i32, i64, ptr }
%struct.constraint_slot = type { i64, i64, i32, i32, i64 }

@.str.127 = private unnamed_addr constant [53 x i8] c"%s: Reservation slot is NULL and it shouldn't happen\00", align 1
@__func__._advance_slot_until = private unnamed_addr constant [20 x i8] c"_advance_slot_until\00", align 1
@.str.128 = private unnamed_addr constant [74 x i8] c"%s: Reservation slot starts after the requested end this shouldn't happen\00", align 1
@.str.129 = private unnamed_addr constant [90 x i8] c"%s: Number of reoccurrings for the reservation slot is negative and this shouldn't happen\00", align 1
@.str.130 = private unnamed_addr constant [40 x i8] c"%s: Unknown recurring reservation flags\00", align 1
@__func__._get_advance_secs = private unnamed_addr constant [18 x i8] c"_get_advance_secs\00", align 1

; Function Attrs: nounwind uwtable
define internal i64 @_get_advance_secs(ptr noundef %0) #0 {
  %2 = alloca i64, align 8
  %3 = alloca ptr, align 8
  %4 = alloca i64, align 8
  %5 = alloca %struct.tm, align 8
  %6 = alloca i32, align 4
  store ptr %0, ptr %3, align 8
  call void @llvm.lifetime.start.p0(i64 8, ptr %4) #10
  store i64 -1, ptr %4, align 8
  call void @llvm.lifetime.start.p0(i64 56, ptr %5) #10
  %7 = load ptr, ptr %3, align 8
  %8 = getelementptr inbounds nuw %struct.constraint_slot, ptr %7, i32 0, i32 4
  %9 = load i64, ptr %8, align 8
  %10 = and i64 %9, 2097152
  %11 = icmp ne i64 %10, 0
  br i1 %11, label %12, label %28

12:                                               ; preds = %1
  %13 = load ptr, ptr %3, align 8
  %14 = getelementptr inbounds nuw %struct.constraint_slot, ptr %13, i32 0, i32 0
  %15 = call ptr @localtime_r(ptr noundef %14, ptr noundef %5) #10
  %16 = getelementptr inbounds nuw %struct.tm, ptr %5, i32 0, i32 6
  %17 = load i32, ptr %16, align 8
  %18 = icmp eq i32 %17, 5
  br i1 %18, label %19, label %20

19:                                               ; preds = %12
  store i64 259200, ptr %4, align 8
  br label %27

20:                                               ; preds = %12
  %21 = getelementptr inbounds nuw %struct.tm, ptr %5, i32 0, i32 6
  %22 = load i32, ptr %21, align 8
  %23 = icmp eq i32 %22, 6
  br i1 %23, label %24, label %25

24:                                               ; preds = %20
  store i64 172800, ptr %4, align 8
  br label %26

25:                                               ; preds = %20
  store i64 86400, ptr %4, align 8
  br label %26

26:                                               ; preds = %25, %24
  br label %27

27:                                               ; preds = %26, %19
  br label %76

28:                                               ; preds = %1
  %29 = load ptr, ptr %3, align 8
  %30 = getelementptr inbounds nuw %struct.constraint_slot, ptr %29, i32 0, i32 4
  %31 = load i64, ptr %30, align 8
  %32 = and i64 %31, 8388608
  %33 = icmp ne i64 %32, 0
  br i1 %33, label %34, label %49

34:                                               ; preds = %28
  %35 = load ptr, ptr %3, align 8
  %36 = getelementptr inbounds nuw %struct.constraint_slot, ptr %35, i32 0, i32 0
  %37 = call ptr @localtime_r(ptr noundef %36, ptr noundef %5) #10
  %38 = getelementptr inbounds nuw %struct.tm, ptr %5, i32 0, i32 6
  %39 = load i32, ptr %38, align 8
  %40 = icmp eq i32 %39, 6
  br i1 %40, label %41, label %42

41:                                               ; preds = %34
  store i64 86400, ptr %4, align 8
  br label %48

42:                                               ; preds = %34
  %43 = getelementptr inbounds nuw %struct.tm, ptr %5, i32 0, i32 6
  %44 = load i32, ptr %43, align 8
  %45 = sub nsw i32 6, %44
  %46 = mul nsw i32 86400, %45
  %47 = sext i32 %46 to i64
  store i64 %47, ptr %4, align 8
  br label %48

48:                                               ; preds = %42, %41
  br label %75

49:                                               ; preds = %28
  %50 = load ptr, ptr %3, align 8
  %51 = getelementptr inbounds nuw %struct.constraint_slot, ptr %50, i32 0, i32 4
  %52 = load i64, ptr %51, align 8
  %53 = and i64 %52, 16
  %54 = icmp ne i64 %53, 0
  br i1 %54, label %55, label %56

55:                                               ; preds = %49
  store i64 604800, ptr %4, align 8
  br label %74

56:                                               ; preds = %49
  %57 = load ptr, ptr %3, align 8
  %58 = getelementptr inbounds nuw %struct.constraint_slot, ptr %57, i32 0, i32 4
  %59 = load i64, ptr %58, align 8
  %60 = and i64 %59, 4
  %61 = icmp ne i64 %60, 0
  br i1 %61, label %62, label %63

62:                                               ; preds = %56
  store i64 86400, ptr %4, align 8
  br label %73

63:                                               ; preds = %56
  %64 = load ptr, ptr %3, align 8
  %65 = getelementptr inbounds nuw %struct.constraint_slot, ptr %64, i32 0, i32 4
  %66 = load i64, ptr %65, align 8
  %67 = and i64 %66, 34359738368
  %68 = icmp ne i64 %67, 0
  br i1 %68, label %69, label %70

69:                                               ; preds = %63
  store i64 3600, ptr %4, align 8
  br label %72

70:                                               ; preds = %63
  %71 = call i32 (ptr, ...) @error(ptr noundef @.str.130, ptr noundef @__func__._get_advance_secs)
  store i64 -1, ptr %2, align 8
  store i32 1, ptr %6, align 4
  br label %78

72:                                               ; preds = %69
  br label %73

73:                                               ; preds = %72, %62
  br label %74

74:                                               ; preds = %73, %55
  br label %75

75:                                               ; preds = %74, %48
  br label %76

76:                                               ; preds = %75, %27
  %77 = load i64, ptr %4, align 8
  store i64 %77, ptr %2, align 8
  store i32 1, ptr %6, align 4
  br label %78

78:                                               ; preds = %76, %70
  call void @llvm.lifetime.end.p0(i64 56, ptr %5) #10
  call void @llvm.lifetime.end.p0(i64 8, ptr %4) #10
  %79 = load i64, ptr %2, align 8
  ret i64 %79
}

; Function Attrs: nounwind uwtable
define internal void @_advance_slot_until(ptr noundef %0, i64 noundef %1) #0 {
  %3 = alloca ptr, align 8
  %4 = alloca i64, align 8
  %5 = alloca %struct.constraint_slot, align 8
  %6 = alloca i64, align 8
  %7 = alloca i32, align 4
  %8 = alloca i32, align 4
  store ptr %0, ptr %3, align 8
  store i64 %1, ptr %4, align 8
  call void @llvm.lifetime.start.p0(i64 32, ptr %5) #10
  call void @llvm.lifetime.start.p0(i64 8, ptr %6) #10
  store i64 0, ptr %6, align 8
  call void @llvm.lifetime.start.p0(i64 4, ptr %7) #10
  store i32 0, ptr %7, align 4
  %9 = load ptr, ptr %3, align 8
  %10 = icmp ne ptr %9, null
  br i1 %10, label %13, label %11

11:                                               ; preds = %2
  %12 = call i32 (ptr, ...) @error(ptr noundef @.str.127, ptr noundef @__func__._advance_slot_until)
  store i32 1, ptr %8, align 4
  br label %81

13:                                               ; preds = %2
  %14 = load ptr, ptr %3, align 8
  %15 = getelementptr inbounds nuw %struct.constraint_slot, ptr %14, i32 0, i32 4
  %16 = load i64, ptr %15, align 8
  %17 = and i64 %16, 34370224148
  %18 = icmp ne i64 %17, 0
  br i1 %18, label %20, label %19

19:                                               ; preds = %13
  store i32 1, ptr %8, align 4
  br label %81

20:                                               ; preds = %13
  %21 = load ptr, ptr %3, align 8
  %22 = getelementptr inbounds nuw %struct.constraint_slot, ptr %21, i32 0, i32 0
  %23 = load i64, ptr %22, align 8
  %24 = load i64, ptr %4, align 8
  %25 = icmp sgt i64 %23, %24
  br i1 %25, label %26, label %28

26:                                               ; preds = %20
  %27 = call i32 (ptr, ...) @error(ptr noundef @.str.128, ptr noundef @__func__._advance_slot_until)
  store i32 1, ptr %8, align 4
  br label %81

28:                                               ; preds = %20
  %29 = load ptr, ptr %3, align 8
  %30 = getelementptr inbounds nuw %struct.constraint_slot, ptr %29, i32 0, i32 4
  %31 = load i64, ptr %30, align 8
  %32 = and i64 %31, 10485760
  %33 = icmp ne i64 %32, 0
  br i1 %33, label %34, label %44

34:                                               ; preds = %28
  %35 = load ptr, ptr %3, align 8
  call void @llvm.memcpy.p0.p0.i64(ptr align 8 %5, ptr align 8 %35, i64 32, i1 false)
  br label %36

36:                                               ; preds = %41, %34
  %37 = getelementptr inbounds nuw %struct.constraint_slot, ptr %5, i32 0, i32 0
  %38 = load i64, ptr %37, align 8
  %39 = load i64, ptr %4, align 8
  %40 = icmp slt i64 %38, %39
  br i1 %40, label %41, label %43

41:                                               ; preds = %36
  %42 = load ptr, ptr %3, align 8
  call void @llvm.memcpy.p0.p0.i64(ptr align 8 %42, ptr align 8 %5, i64 32, i1 false)
  call void @_advance_slot(ptr noundef %5)
  br label %36, !llvm.loop !79

43:                                               ; preds = %36
  br label %80

44:                                               ; preds = %28
  %45 = load ptr, ptr %3, align 8
  %46 = call i64 @_get_advance_secs(ptr noundef %45)
  store i64 %46, ptr %6, align 8
  %47 = icmp eq i64 %46, -1
  br i1 %47, label %48, label %49

48:                                               ; preds = %44
  store i32 1, ptr %8, align 4
  br label %81

49:                                               ; preds = %44
  %50 = load i64, ptr %4, align 8
  %51 = sub nsw i64 %50, 1
  %52 = load ptr, ptr %3, align 8
  %53 = getelementptr inbounds nuw %struct.constraint_slot, ptr %52, i32 0, i32 0
  %54 = load i64, ptr %53, align 8
  %55 = sub nsw i64 %51, %54
  %56 = load i64, ptr %6, align 8
  %57 = sdiv i64 %55, %56
  %58 = trunc i64 %57 to i32
  store i32 %58, ptr %7, align 4
  %59 = load i32, ptr %7, align 4
  %60 = sext i32 %59 to i64
  %61 = load i64, ptr %6, align 8
  %62 = mul nsw i64 %60, %61
  %63 = load ptr, ptr %3, align 8
  %64 = getelementptr inbounds nuw %struct.constraint_slot, ptr %63, i32 0, i32 0
  %65 = load i64, ptr %64, align 8
  %66 = add nsw i64 %65, %62
  store i64 %66, ptr %64, align 8
  %67 = load i32, ptr %7, align 4
  %68 = sext i32 %67 to i64
  %69 = load i64, ptr %6, align 8
  %70 = mul nsw i64 %68, %69
  %71 = load ptr, ptr %3, align 8
  %72 = getelementptr inbounds nuw %struct.constraint_slot, ptr %71, i32 0, i32 1
  %73 = load i64, ptr %72, align 8
  %74 = add nsw i64 %73, %70
  store i64 %74, ptr %72, align 8
  %75 = load i32, ptr %7, align 4
  %76 = icmp slt i32 %75, 0
  br i1 %76, label %77, label %79

77:                                               ; preds = %49
  %78 = call i32 (ptr, ...) @error(ptr noundef @.str.129, ptr noundef @__func__._advance_slot_until)
  br label %79

79:                                               ; preds = %77, %49
  br label %80

80:                                               ; preds = %79, %43
  store i32 0, ptr %8, align 4
  br label %81

81:                                               ; preds = %80, %48, %26, %19, %11
  call void @llvm.lifetime.end.p0(i64 4, ptr %7) #10
  call void @llvm.lifetime.end.p0(i64 8, ptr %6) #10
  call void @llvm.lifetime.end.p0(i64 32, ptr %5) #10
  %82 = load i32, ptr %8, align 4
  switch i32 %82, label %84 [
    i32 0, label %83
    i32 1, label %83
  ]

83:                                               ; preds = %81, %81
  ret void

84:                                               ; preds = %81
  unreachable
}