; Function Attrs: nounwind uwtable
define internal fastcc void @_advance_slot_until(ptr noundef captures(address_is_null) %0, i64 noundef %1) unnamed_addr #0 {
  %3 = alloca %struct.constraint_slot, align 8
  call void @llvm.lifetime.start.p0(i64 32, ptr nonnull %3) #19
  %.not = icmp eq ptr %0, null
  br i1 %.not, label %4, label %6

4:                                                ; preds = %2
  %5 = tail call i32 (ptr, ...) @error(ptr noundef nonnull @.str.127, ptr noundef nonnull @__func__._advance_slot_until) #19
  br label %.loopexit

6:                                                ; preds = %2
  %7 = getelementptr inbounds nuw i8, ptr %0, i64 24
  %8 = load i64, ptr %7, align 8
  %9 = and i64 %8, 34370224148
  %.not20 = icmp eq i64 %9, 0
  br i1 %.not20, label %.loopexit, label %10

10:                                               ; preds = %6
  %11 = load i64, ptr %0, align 8
  %12 = icmp sgt i64 %11, %1
  br i1 %12, label %13, label %15

13:                                               ; preds = %10
  %14 = tail call i32 (ptr, ...) @error(ptr noundef nonnull @.str.128, ptr noundef nonnull @__func__._advance_slot_until) #19
  br label %.loopexit

15:                                               ; preds = %10
  %16 = and i64 %8, 10485760
  %.not21 = icmp eq i64 %16, 0
  br i1 %.not21, label %22, label %17

17:                                               ; preds = %15
  call void @llvm.memcpy.p0.p0.i64(ptr noundef nonnull align 8 dereferenceable(32) %3, ptr noundef nonnull align 8 dereferenceable(32) %0, i64 32, i1 false)
  %18 = load i64, ptr %3, align 8
  %19 = icmp slt i64 %18, %1
  br i1 %19, label %.lr.ph, label %.loopexit

.lr.ph:                                           ; preds = %17, %.lr.ph
  call void @llvm.memcpy.p0.p0.i64(ptr noundef nonnull align 8 dereferenceable(32) %0, ptr noundef nonnull align 8 dereferenceable(32) %3, i64 32, i1 false)
  call fastcc void @_advance_slot(ptr noundef nonnull %3)
  %20 = load i64, ptr %3, align 8
  %21 = icmp slt i64 %20, %1
  br i1 %21, label %.lr.ph, label %.loopexit, !llvm.loop !85

22:                                               ; preds = %15
  %23 = and i64 %8, 16
  %.not12.i = icmp eq i64 %23, 0
  br i1 %.not12.i, label %24, label %29

24:                                               ; preds = %22
  %25 = and i64 %8, 4
  %.not13.i = icmp eq i64 %25, 0
  br i1 %.not13.i, label %26, label %29

26:                                               ; preds = %24
  %27 = and i64 %8, 34359738368
  %.not14.i = icmp eq i64 %27, 0
  br i1 %.not14.i, label %_get_advance_secs.exit, label %29

_get_advance_secs.exit:                           ; preds = %26
  %28 = tail call i32 (ptr, ...) @error(ptr noundef nonnull @.str.130, ptr noundef nonnull @__func__._get_advance_secs) #19
  br label %.loopexit

29:                                               ; preds = %22, %24, %26
  %.08.i.ph = phi i64 [ 3600, %26 ], [ 86400, %24 ], [ 604800, %22 ]
  %30 = xor i64 %11, -1
  %31 = add i64 %1, %30
  %32 = sdiv i64 %31, %.08.i.ph
  %sext = shl i64 %32, 32
  %33 = ashr exact i64 %sext, 32
  %34 = mul nsw i64 %33, %.08.i.ph
  %35 = add nsw i64 %34, %11
  store i64 %35, ptr %0, align 8
  %36 = getelementptr inbounds nuw i8, ptr %0, i64 8
  %37 = load i64, ptr %36, align 8
  %38 = add nsw i64 %34, %37
  store i64 %38, ptr %36, align 8
  %39 = and i64 %32, 2147483648
  %.not22 = icmp eq i64 %39, 0
  br i1 %.not22, label %.loopexit, label %40

40:                                               ; preds = %29
  %41 = tail call i32 (ptr, ...) @error(ptr noundef nonnull @.str.129, ptr noundef nonnull @__func__._advance_slot_until) #19
  br label %.loopexit

.loopexit:                                        ; preds = %.lr.ph, %17, %_get_advance_secs.exit, %40, %29, %6, %13, %4
  call void @llvm.lifetime.end.p0(i64 32, ptr nonnull %3) #19
  ret void
}